; Function Attrs: mustprogress uwtable
define noundef zeroext i1 @_ZNK32pxrInternal_v0_24__pxrReserved__7UsdPrim15HasRelationshipERKNS_7TfTokenE(ptr noundef nonnull align 8 dereferenceable(32) %0, ptr noundef nonnull align 8 dereferenceable(8) %1) local_unnamed_addr #0 align 2 personality ptr @__gxx_personality_v0 {
  %3 = alloca %"class.pxrInternal_v0_24__pxrReserved__::UsdRelationship", align 8
  %4 = getelementptr inbounds nuw i8, ptr %0, i64 8
  %5 = getelementptr inbounds nuw i8, ptr %0, i64 16
  call void @_ZN32pxrInternal_v0_24__pxrReserved__9UsdObjectC2ENS_10UsdObjTypeERKNS_18Usd_PrimDataHandleERKNS_7SdfPathERKNS_7TfTokenE(ptr noundef nonnull align 8 dereferenceable(32) %3, i32 noundef 4, ptr noundef nonnull align 8 dereferenceable(8) %4, ptr noundef nonnull align 4 dereferenceable(8) %5, ptr noundef nonnull align 8 dereferenceable(8) %1)
  %6 = load i32, ptr %3, align 8
  switch i32 %6, label %_ZNK32pxrInternal_v0_24__pxrReserved__9UsdObjectcvbEv.exit [
    i32 4, label %7
    i32 3, label %7
    i32 1, label %7
  ]

7:                                                ; preds = %2, %2, %2
  %8 = getelementptr inbounds nuw i8, ptr %3, i64 8
  %9 = load ptr, ptr %8, align 8
  %.not.i.i.i = icmp eq ptr %9, null
  br i1 %.not.i.i.i, label %_ZNK32pxrInternal_v0_24__pxrReserved__9UsdObjectcvbEv.exit, label %_ZNK32pxrInternal_v0_24__pxrReserved__18Usd_PrimDataHandlecvbEv.exit.i.i

_ZNK32pxrInternal_v0_24__pxrReserved__18Usd_PrimDataHandlecvbEv.exit.i.i: ; preds = %7
  %10 = getelementptr inbounds nuw i8, ptr %9, i64 56
  %11 = load i64, ptr %10, align 8
  %12 = and i64 %11, 2048
  %.not3.i.i.i = icmp eq i64 %12, 0
  br i1 %.not3.i.i.i, label %13, label %_ZNK32pxrInternal_v0_24__pxrReserved__9UsdObjectcvbEv.exit

13:                                               ; preds = %_ZNK32pxrInternal_v0_24__pxrReserved__18Usd_PrimDataHandlecvbEv.exit.i.i
  %14 = icmp eq i32 %6, 1
  br i1 %14, label %_ZNK32pxrInternal_v0_24__pxrReserved__9UsdObjectcvbEv.exit, label %15

15:                                               ; preds = %13
  %16 = invoke noundef i32 @_ZNK32pxrInternal_v0_24__pxrReserved__9UsdObject20_GetDefiningSpecTypeEv(ptr noundef nonnull align 8 dereferenceable(32) %3)
          to label %.noexc unwind label %57

.noexc:                                           ; preds = %15
  %17 = load i32, ptr %3, align 8
  %18 = icmp eq i32 %17, 3
  %19 = icmp eq i32 %16, 1
  %or.cond.i.i = and i1 %19, %18
  br i1 %or.cond.i.i, label %_ZNK32pxrInternal_v0_24__pxrReserved__9UsdObjectcvbEv.exit, label %20

20:                                               ; preds = %.noexc
  %21 = icmp eq i32 %17, 4
  %22 = icmp eq i32 %16, 8
  %23 = and i1 %22, %21
  br label %_ZNK32pxrInternal_v0_24__pxrReserved__9UsdObjectcvbEv.exit

_ZNK32pxrInternal_v0_24__pxrReserved__9UsdObjectcvbEv.exit: ; preds = %20, %.noexc, %13, %_ZNK32pxrInternal_v0_24__pxrReserved__18Usd_PrimDataHandlecvbEv.exit.i.i, %7, %2
  %.0.i.i = phi i1 [ false, %_ZNK32pxrInternal_v0_24__pxrReserved__18Usd_PrimDataHandlecvbEv.exit.i.i ], [ false, %2 ], [ true, %13 ], [ %23, %20 ], [ true, %.noexc ], [ false, %7 ]
  %24 = getelementptr inbounds nuw i8, ptr %3, i64 24
  %25 = load ptr, ptr %24, align 8
  %26 = ptrtoint ptr %25 to i64
  %27 = and i64 %26, 7
  %.not.i.i.i.i.i = icmp eq i64 %27, 0
  br i1 %.not.i.i.i.i.i, label %_ZN32pxrInternal_v0_24__pxrReserved__7TfTokenD2Ev.exit.i.i.i, label %28

28:                                               ; preds = %_ZNK32pxrInternal_v0_24__pxrReserved__9UsdObjectcvbEv.exit
  %29 = and i64 %26, -8
  %30 = inttoptr i64 %29 to ptr
  %31 = atomicrmw sub ptr %30, i32 2 release, align 4
  br label %_ZN32pxrInternal_v0_24__pxrReserved__7TfTokenD2Ev.exit.i.i.i

_ZN32pxrInternal_v0_24__pxrReserved__7TfTokenD2Ev.exit.i.i.i: ; preds = %28, %_ZNK32pxrInternal_v0_24__pxrReserved__9UsdObjectcvbEv.exit
  %32 = getelementptr inbounds nuw i8, ptr %3, i64 16
  %33 = load i32, ptr %32, align 8
  %.not.i.i1.i.i.i = icmp eq i32 %33, 0
  br i1 %.not.i.i1.i.i.i, label %_ZN32pxrInternal_v0_24__pxrReserved__7SdfPathD2Ev.exit.i.i.i, label %34

34:                                               ; preds = %_ZN32pxrInternal_v0_24__pxrReserved__7TfTokenD2Ev.exit.i.i.i
  %35 = and i32 %33, 255
  %36 = lshr i32 %33, 8
  %37 = zext nneg i32 %35 to i64
  %38 = getelementptr inbounds [257 x ptr], ptr @_ZN32pxrInternal_v0_24__pxrReserved__8Sdf_PoolINS_15Sdf_PathPrimTagELj24ELj8ELj16384EE13_regionStartsE, i64 0, i64 %37
  %39 = load ptr, ptr %38, align 8
  %40 = mul nuw nsw i32 %36, 24
  %41 = zext nneg i32 %40 to i64
  %42 = getelementptr inbounds i8, ptr %39, i64 %41
  %43 = getelementptr inbounds nuw i8, ptr %42, i64 8
  %44 = atomicrmw sub ptr %43, i32 1 seq_cst, align 4
  %45 = and i32 %44, 2147483647
  %46 = icmp eq i32 %45, 1
  br i1 %46, label %47, label %_ZN32pxrInternal_v0_24__pxrReserved__7SdfPathD2Ev.exit.i.i.i

47:                                               ; preds = %34
  invoke void @_ZNK32pxrInternal_v0_24__pxrReserved__12Sdf_PathNode8_DestroyEv(ptr noundef nonnull align 8 dereferenceable(16) %42)
          to label %_ZN32pxrInternal_v0_24__pxrReserved__7SdfPathD2Ev.exit.i.i.i unwind label %48

48:                                               ; preds = %47
  %49 = landingpad { ptr, i32 }
          catch ptr null
  %50 = extractvalue { ptr, i32 } %49, 0
  call void @__clang_call_terminate(ptr %50) #23
  unreachable

_ZN32pxrInternal_v0_24__pxrReserved__7SdfPathD2Ev.exit.i.i.i: ; preds = %47, %34, %_ZN32pxrInternal_v0_24__pxrReserved__7TfTokenD2Ev.exit.i.i.i
  %51 = getelementptr inbounds nuw i8, ptr %3, i64 8
  %52 = load ptr, ptr %51, align 8
  %.not.i.i.i.i.i.i = icmp eq ptr %52, null
  br i1 %.not.i.i.i.i.i.i, label %_ZN32pxrInternal_v0_24__pxrReserved__15UsdRelationshipD2Ev.exit, label %53

53:                                               ; preds = %_ZN32pxrInternal_v0_24__pxrReserved__7SdfPathD2Ev.exit.i.i.i
  %54 = getelementptr inbounds nuw i8, ptr %52, i64 48
  %55 = atomicrmw sub ptr %54, i64 1 release, align 8
  %.not1.i.i.i.i.i.i = icmp eq i64 %55, 1
  br i1 %.not1.i.i.i.i.i.i, label %56, label %_ZN32pxrInternal_v0_24__pxrReserved__15UsdRelationshipD2Ev.exit

56:                                               ; preds = %53
  call void @_ZN32pxrInternal_v0_24__pxrReserved__12Usd_PrimDataD1Ev(ptr noundef nonnull align 8 dereferenceable(64) %52) #18
  call void @_ZdlPvm(ptr noundef nonnull %52, i64 noundef 64) #25
  br label %_ZN32pxrInternal_v0_24__pxrReserved__15UsdRelationshipD2Ev.exit

_ZN32pxrInternal_v0_24__pxrReserved__15UsdRelationshipD2Ev.exit: ; preds = %_ZN32pxrInternal_v0_24__pxrReserved__7SdfPathD2Ev.exit.i.i.i, %53, %56
  ret i1 %.0.i.i

57:                                               ; preds = %15
  %58 = landingpad { ptr, i32 }
          cleanup
  call void @_ZN32pxrInternal_v0_24__pxrReserved__15UsdRelationshipD2Ev(ptr noundef nonnull align 8 dereferenceable(32) %3) #18
  resume { ptr, i32 } %58
}